target datalayout = "e-m:e-p270:32:32-p271:32:32-p272:64:64-i64:64-i128:128-f80:128-n8:16:32:64-S128"
target triple = "x86_64-pc-linux-gnu"

%struct.termios = type { i32, i32, i32, i32, i8, [32 x i8], i32, i32 }
%struct.sigaction = type { %union.anon, %struct.__sigset_t, i32, ptr }
%union.anon = type { ptr }
%struct.__sigset_t = type { [16 x i64] }

@term_fd = internal global i32 -1, align 4
@old_term = internal global %struct.termios zeroinitializer, align 4
@restore_error_msg = internal global ptr null, align 8
@ttou_received = internal global i32 0, align 4
@.str.8 = private unnamed_addr constant [8 x i8] c"error: \00", align 1
@.str.9 = private unnamed_addr constant [2 x i8] c"\0A\00", align 1

; Function Attrs: nounwind uwtable
define internal void @write_err(ptr noundef %0) #0 {
  %2 = alloca ptr, align 8
  store ptr %0, ptr %2, align 8, !tbaa !8
  %3 = call i64 @write_in_full(i32 noundef 2, ptr noundef @.str.8, i64 noundef 7)
  %4 = load ptr, ptr %2, align 8, !tbaa !8
  %5 = load ptr, ptr %2, align 8, !tbaa !8
  %6 = call i64 @strlen(ptr noundef %5) #13
  %7 = call i64 @write_in_full(i32 noundef 2, ptr noundef %4, i64 noundef %6)
  %8 = call i64 @write_in_full(i32 noundef 2, ptr noundef @.str.9, i64 noundef 1)
  ret void
}

; Function Attrs: nounwind uwtable
define internal void @restore_terminal_on_suspend(i32 noundef %0) #0 {
  %2 = alloca i32, align 4
  %3 = alloca i32, align 4
  %4 = alloca i32, align 4
  %5 = alloca %struct.termios, align 4
  %6 = alloca %struct.__sigset_t, align 8
  %7 = alloca %struct.sigaction, align 8
  %8 = alloca %struct.sigaction, align 8
  %9 = alloca i32, align 4
  store i32 %0, ptr %2, align 4, !tbaa !4
  call void @llvm.lifetime.start.p0(i64 4, ptr %3) #10
  %10 = call ptr @__errno_location() #11
  %11 = load i32, ptr %10, align 4, !tbaa !4
  store i32 %11, ptr %3, align 4, !tbaa !4
  call void @llvm.lifetime.start.p0(i64 4, ptr %4) #10
  call void @llvm.lifetime.start.p0(i64 60, ptr %5) #10
  call void @llvm.lifetime.start.p0(i64 128, ptr %6) #10
  call void @llvm.lifetime.start.p0(i64 152, ptr %7) #10
  call void @llvm.lifetime.start.p0(i64 152, ptr %8) #10
  call void @llvm.memset.p0.i64(ptr align 8 %8, i8 0, i64 152, i1 false)
  call void @llvm.lifetime.start.p0(i64 4, ptr %9) #10
  store i32 1, ptr %9, align 4, !tbaa !4
  %12 = load i32, ptr @term_fd, align 4, !tbaa !4
  %13 = call i32 @tcgetattr(i32 noundef %12, ptr noundef %5) #10
  %14 = icmp slt i32 %13, 0
  br i1 %14, label %15, label %16

15:                                               ; preds = %1
  store i32 0, ptr %9, align 4, !tbaa !4
  br label %16

16:                                               ; preds = %15, %1
  %17 = load i32, ptr @term_fd, align 4, !tbaa !4
  %18 = call i32 @tcsetattr(i32 noundef %17, i32 noundef 2, ptr noundef @old_term) #10
  %19 = icmp slt i32 %18, 0
  br i1 %19, label %20, label %22

20:                                               ; preds = %16
  %21 = load ptr, ptr @restore_error_msg, align 8, !tbaa !8
  call void @write_err(ptr noundef %21)
  br label %22

22:                                               ; preds = %20, %16
  %23 = load i32, ptr %2, align 4, !tbaa !4
  %24 = call i32 @sigaction(i32 noundef %23, ptr noundef %8, ptr noundef %7) #10
  %25 = load i32, ptr %2, align 4, !tbaa !4
  %26 = call i32 @raise(i32 noundef %25) #10
  %27 = call i32 @sigemptyset(ptr noundef %6) #10
  %28 = load i32, ptr %2, align 4, !tbaa !4
  %29 = call i32 @sigaddset(ptr noundef %6, i32 noundef %28) #10
  %30 = call i32 @sigprocmask(i32 noundef 1, ptr noundef %6, ptr noundef null) #10
  %31 = call i32 @sigprocmask(i32 noundef 0, ptr noundef %6, ptr noundef null) #10
  %32 = load i32, ptr %2, align 4, !tbaa !4
  %33 = call i32 @sigaction(i32 noundef %32, ptr noundef %7, ptr noundef null) #10
  %34 = load i32, ptr %9, align 4, !tbaa !4
  %35 = icmp ne i32 %34, 0
  br i1 %35, label %38, label %36

36:                                               ; preds = %22
  %37 = load ptr, ptr @restore_error_msg, align 8, !tbaa !8
  call void @write_err(ptr noundef %37)
  br label %62

38:                                               ; preds = %22
  %39 = call i32 @sigemptyset(ptr noundef %6) #10
  %40 = call i32 @sigaddset(ptr noundef %6, i32 noundef 22) #10
  %41 = getelementptr inbounds nuw %struct.sigaction, ptr %8, i32 0, i32 1
  %42 = getelementptr inbounds nuw %struct.sigaction, ptr %7, i32 0, i32 1
  call void @llvm.memcpy.p0.p0.i64(ptr align 8 %41, ptr align 8 %42, i64 128, i1 false), !tbaa.struct !15
  %43 = getelementptr inbounds nuw %struct.sigaction, ptr %8, i32 0, i32 0
  store ptr @print_background_resume_msg, ptr %43, align 8, !tbaa !11
  %44 = getelementptr inbounds nuw %struct.sigaction, ptr %8, i32 0, i32 2
  store i32 268435456, ptr %44, align 8, !tbaa !12
  %45 = call i32 @sigaction(i32 noundef 22, ptr noundef %8, ptr noundef %7) #10
  br label %46

46:                                               ; preds = %53, %38
  store volatile i32 0, ptr @ttou_received, align 4, !tbaa !4
  %47 = call i32 @sigprocmask(i32 noundef 1, ptr noundef %6, ptr noundef null) #10
  %48 = load i32, ptr @term_fd, align 4, !tbaa !4
  %49 = call i32 @tcsetattr(i32 noundef %48, i32 noundef 2, ptr noundef %5) #10
  store i32 %49, ptr %4, align 4, !tbaa !4
  %50 = call i32 @sigprocmask(i32 noundef 0, ptr noundef %6, ptr noundef null) #10
  %51 = load volatile i32, ptr @ttou_received, align 4, !tbaa !4
  %52 = icmp ne i32 %51, 0
  br i1 %52, label %53, label %54

53:                                               ; preds = %46
  br label %46

54:                                               ; preds = %46
  %55 = load i32, ptr %4, align 4, !tbaa !4
  %56 = icmp slt i32 %55, 0
  br i1 %56, label %57, label %59

57:                                               ; preds = %54
  %58 = load ptr, ptr @restore_error_msg, align 8, !tbaa !8
  call void @write_err(ptr noundef %58)
  br label %59

59:                                               ; preds = %57, %54
  br label %60

60:                                               ; preds = %59
  %61 = call i32 @sigaction(i32 noundef 22, ptr noundef %7, ptr noundef null) #10
  br label %62

62:                                               ; preds = %60, %36
  %63 = load i32, ptr %3, align 4, !tbaa !4
  %64 = call ptr @__errno_location() #11
  store i32 %63, ptr %64, align 4, !tbaa !4
  call void @llvm.lifetime.end.p0(i64 4, ptr %9) #10
  call void @llvm.lifetime.end.p0(i64 152, ptr %8) #10
  call void @llvm.lifetime.end.p0(i64 152, ptr %7) #10
  call void @llvm.lifetime.end.p0(i64 128, ptr %6) #10
  call void @llvm.lifetime.end.p0(i64 60, ptr %5) #10
  call void @llvm.lifetime.end.p0(i64 4, ptr %4) #10
  call void @llvm.lifetime.end.p0(i64 4, ptr %3) #10
  ret void
}