; Function Attrs: nounwind uwtable
define internal void @restore_terminal_on_suspend(i32 noundef %0) #0 {
  %2 = alloca %struct.termios, align 4
  %3 = alloca %struct.__sigset_t, align 8
  %4 = alloca %struct.sigaction, align 8
  %5 = alloca %struct.sigaction, align 8
  %6 = tail call ptr @__errno_location() #14
  %7 = load i32, ptr %6, align 4, !tbaa !4
  call void @llvm.lifetime.start.p0(i64 60, ptr nonnull %2) #13
  call void @llvm.lifetime.start.p0(i64 128, ptr nonnull %3) #13
  call void @llvm.lifetime.start.p0(i64 152, ptr nonnull %4) #13
  call void @llvm.lifetime.start.p0(i64 152, ptr nonnull %5) #13
  call void @llvm.memset.p0.i64(ptr noundef nonnull align 8 dereferenceable(152) %5, i8 0, i64 152, i1 false)
  %8 = load i32, ptr @term_fd, align 4, !tbaa !4
  %9 = call i32 @tcgetattr(i32 noundef %8, ptr noundef nonnull %2) #13
  %10 = icmp slt i32 %9, 0
  %11 = load i32, ptr @term_fd, align 4, !tbaa !4
  %12 = call i32 @tcsetattr(i32 noundef %11, i32 noundef 2, ptr noundef nonnull @old_term) #13
  %13 = icmp slt i32 %12, 0
  br i1 %13, label %14, label %20

14:                                               ; preds = %1
  %15 = load ptr, ptr @restore_error_msg, align 8, !tbaa !8
  %16 = call i64 @write_in_full(i32 noundef 2, ptr noundef nonnull @.str.8, i64 noundef 7) #13
  %17 = call i64 @strlen(ptr noundef nonnull dereferenceable(1) %15) #15
  %18 = call i64 @write_in_full(i32 noundef 2, ptr noundef nonnull %15, i64 noundef %17) #13
  %19 = call i64 @write_in_full(i32 noundef 2, ptr noundef nonnull @.str.9, i64 noundef 1) #13
  br label %20

20:                                               ; preds = %14, %1
  %21 = call i32 @sigaction(i32 noundef %0, ptr noundef nonnull %5, ptr noundef nonnull %4) #13
  %22 = call i32 @raise(i32 noundef %0) #13
  %23 = call i32 @sigemptyset(ptr noundef nonnull %3) #13
  %24 = call i32 @sigaddset(ptr noundef nonnull %3, i32 noundef %0) #13
  %25 = call i32 @sigprocmask(i32 noundef 1, ptr noundef nonnull %3, ptr noundef null) #13
  %26 = call i32 @sigprocmask(i32 noundef 0, ptr noundef nonnull %3, ptr noundef null) #13
  %27 = call i32 @sigaction(i32 noundef %0, ptr noundef nonnull %4, ptr noundef null) #13
  br i1 %10, label %28, label %34

28:                                               ; preds = %20
  %29 = load ptr, ptr @restore_error_msg, align 8, !tbaa !8
  %30 = call i64 @write_in_full(i32 noundef 2, ptr noundef nonnull @.str.8, i64 noundef 7) #13
  %31 = call i64 @strlen(ptr noundef nonnull dereferenceable(1) %29) #15
  %32 = call i64 @write_in_full(i32 noundef 2, ptr noundef nonnull %29, i64 noundef %31) #13
  %33 = call i64 @write_in_full(i32 noundef 2, ptr noundef nonnull @.str.9, i64 noundef 1) #13
  br label %57

34:                                               ; preds = %20
  %35 = call i32 @sigemptyset(ptr noundef nonnull %3) #13
  %36 = call i32 @sigaddset(ptr noundef nonnull %3, i32 noundef 22) #13
  %37 = getelementptr inbounds nuw i8, ptr %5, i64 8
  %38 = getelementptr inbounds nuw i8, ptr %4, i64 8
  call void @llvm.memcpy.p0.p0.i64(ptr noundef nonnull align 8 dereferenceable(128) %37, ptr noundef nonnull align 8 dereferenceable(128) %38, i64 128, i1 false), !tbaa.struct !15
  store ptr @print_background_resume_msg, ptr %5, align 8, !tbaa !11
  %39 = getelementptr inbounds nuw i8, ptr %5, i64 136
  store i32 268435456, ptr %39, align 8, !tbaa !12
  %40 = call i32 @sigaction(i32 noundef 22, ptr noundef nonnull %5, ptr noundef nonnull %4) #13
  br label %41

41:                                               ; preds = %41, %34
  store volatile i32 0, ptr @ttou_received, align 4, !tbaa !4
  %42 = call i32 @sigprocmask(i32 noundef 1, ptr noundef nonnull %3, ptr noundef null) #13
  %43 = load i32, ptr @term_fd, align 4, !tbaa !4
  %44 = call i32 @tcsetattr(i32 noundef %43, i32 noundef 2, ptr noundef nonnull %2) #13
  %45 = call i32 @sigprocmask(i32 noundef 0, ptr noundef nonnull %3, ptr noundef null) #13
  %46 = load volatile i32, ptr @ttou_received, align 4, !tbaa !4
  %.not = icmp eq i32 %46, 0
  br i1 %.not, label %47, label %41

47:                                               ; preds = %41
  %48 = icmp slt i32 %44, 0
  br i1 %48, label %49, label %55

49:                                               ; preds = %47
  %50 = load ptr, ptr @restore_error_msg, align 8, !tbaa !8
  %51 = call i64 @write_in_full(i32 noundef 2, ptr noundef nonnull @.str.8, i64 noundef 7) #13
  %52 = call i64 @strlen(ptr noundef nonnull dereferenceable(1) %50) #15
  %53 = call i64 @write_in_full(i32 noundef 2, ptr noundef nonnull %50, i64 noundef %52) #13
  %54 = call i64 @write_in_full(i32 noundef 2, ptr noundef nonnull @.str.9, i64 noundef 1) #13
  br label %55

55:                                               ; preds = %47, %49
  %56 = call i32 @sigaction(i32 noundef 22, ptr noundef nonnull %4, ptr noundef null) #13
  br label %57

57:                                               ; preds = %55, %28
  store i32 %7, ptr %6, align 4, !tbaa !4
  call void @llvm.lifetime.end.p0(i64 152, ptr nonnull %5) #13
  call void @llvm.lifetime.end.p0(i64 152, ptr nonnull %4) #13
  call void @llvm.lifetime.end.p0(i64 128, ptr nonnull %3) #13
  call void @llvm.lifetime.end.p0(i64 60, ptr nonnull %2) #13
  ret void
}